; Function Attrs: mustprogress nofree norecurse nosync nounwind willreturn memory(read, inaccessiblemem: none) uwtable
define internal range(i32 -1, 2) i32 @_sort_step_by_user_id(ptr noundef readonly captures(none) %0, ptr noundef readonly captures(none) %1) #5 {
  %.val = load ptr, ptr %0, align 8
  %3 = load ptr, ptr %1, align 8
  %4 = getelementptr inbounds nuw i8, ptr %.val, i64 256
  %5 = load i32, ptr %4, align 8
  %6 = getelementptr inbounds nuw i8, ptr %3, i64 256
  %7 = load i32, ptr %6, align 8
  %.0.i = tail call range(i32 -1, 2) i32 @llvm.ucmp.i32.i32(i32 %5, i32 %7)
  %.b3 = load i1, ptr @reverse_order, align 1
  %8 = sub nsw i32 0, %.0.i
  %spec.select = select i1 %.b3, i32 %8, i32 %.0.i
  ret i32 %spec.select
}